target datalayout = "e-m:e-p270:32:32-p271:32:32-p272:64:64-i64:64-i128:128-f80:128-n8:16:32:64-S128"
target triple = "x86_64-pc-linux-gnu"

%union.Value = type { ptr }
%struct.lua_State = type { ptr, i8, i8, i8, ptr, ptr, ptr, ptr, ptr, ptr, ptr, ptr, ptr, i32, i32, i16, i16, i8, i8, i32, i32, ptr, %struct.lua_TValue, %struct.lua_TValue, ptr, ptr, ptr, i64 }
%struct.lua_TValue = type { %union.Value, i32 }
%struct.lua_longjmp = type { ptr, [1 x %struct.__jmp_buf_tag], i32 }
%struct.__jmp_buf_tag = type { [8 x i64], i32, %struct.__sigset_t }
%struct.__sigset_t = type { [16 x i64] }

; Function Attrs: nounwind uwtable
define internal i32 @luaD_rawrunprotected(ptr noundef %0, ptr noundef %1, ptr noundef %2) #0 {
  %4 = alloca ptr, align 8
  %5 = alloca ptr, align 8
  %6 = alloca ptr, align 8
  %7 = alloca %struct.lua_longjmp, align 8
  store ptr %0, ptr %4, align 8, !tbaa !11
  store ptr %1, ptr %5, align 8, !tbaa !71
  store ptr %2, ptr %6, align 8, !tbaa !71
  call void @llvm.lifetime.start.p0(i64 216, ptr %7) #14
  %8 = getelementptr inbounds nuw %struct.lua_longjmp, ptr %7, i32 0, i32 2
  store volatile i32 0, ptr %8, align 8, !tbaa !112
  %9 = load ptr, ptr %4, align 8, !tbaa !11
  %10 = getelementptr inbounds nuw %struct.lua_State, ptr %9, i32 0, i32 26
  %11 = load ptr, ptr %10, align 8, !tbaa !101
  %12 = getelementptr inbounds nuw %struct.lua_longjmp, ptr %7, i32 0, i32 0
  store ptr %11, ptr %12, align 8, !tbaa !114
  %13 = load ptr, ptr %4, align 8, !tbaa !11
  %14 = getelementptr inbounds nuw %struct.lua_State, ptr %13, i32 0, i32 26
  store ptr %7, ptr %14, align 8, !tbaa !101
  %15 = getelementptr inbounds nuw %struct.lua_longjmp, ptr %7, i32 0, i32 1
  %16 = getelementptr inbounds [1 x %struct.__jmp_buf_tag], ptr %15, i64 0, i64 0
  %17 = call i32 @_setjmp(ptr noundef %16) #17
  %18 = icmp eq i32 %17, 0
  br i1 %18, label %19, label %23

19:                                               ; preds = %3
  %20 = load ptr, ptr %5, align 8, !tbaa !71
  %21 = load ptr, ptr %4, align 8, !tbaa !11
  %22 = load ptr, ptr %6, align 8, !tbaa !71
  call void %20(ptr noundef %21, ptr noundef %22)
  br label %23

23:                                               ; preds = %19, %3
  %24 = getelementptr inbounds nuw %struct.lua_longjmp, ptr %7, i32 0, i32 0
  %25 = load ptr, ptr %24, align 8, !tbaa !114
  %26 = load ptr, ptr %4, align 8, !tbaa !11
  %27 = getelementptr inbounds nuw %struct.lua_State, ptr %26, i32 0, i32 26
  store ptr %25, ptr %27, align 8, !tbaa !101
  %28 = getelementptr inbounds nuw %struct.lua_longjmp, ptr %7, i32 0, i32 2
  %29 = load volatile i32, ptr %28, align 8, !tbaa !112
  call void @llvm.lifetime.end.p0(i64 216, ptr %7) #14
  ret i32 %29
}