; Function Attrs: nounwind uwtable
define internal fastcc i32 @luaD_rawrunprotected(ptr noundef %0, ptr noundef readonly captures(none) %1, ptr noundef %2) unnamed_addr #0 {
  %4 = alloca %struct.lua_longjmp, align 8
  call void @llvm.lifetime.start.p0(i64 216, ptr nonnull %4) #35
  %5 = getelementptr inbounds nuw i8, ptr %4, i64 208
  store volatile i32 0, ptr %5, align 8, !tbaa !112
  %6 = getelementptr inbounds nuw i8, ptr %0, i64 168
  %7 = load ptr, ptr %6, align 8, !tbaa !32
  store ptr %7, ptr %4, align 8, !tbaa !114
  store ptr %4, ptr %6, align 8, !tbaa !32
  %8 = getelementptr inbounds nuw i8, ptr %4, i64 8
  %9 = call i32 @_setjmp(ptr noundef nonnull %8) #39
  %10 = icmp eq i32 %9, 0
  br i1 %10, label %11, label %12

11:                                               ; preds = %3
  call void %1(ptr noundef nonnull %0, ptr noundef %2) #35, !callees !115
  br label %12

12:                                               ; preds = %11, %3
  %13 = load ptr, ptr %4, align 8, !tbaa !114
  store ptr %13, ptr %6, align 8, !tbaa !32
  %14 = load volatile i32, ptr %5, align 8, !tbaa !112
  call void @llvm.lifetime.end.p0(i64 216, ptr nonnull %4) #35
  ret i32 %14
}